target datalayout = "e-m:e-p270:32:32-p271:32:32-p272:64:64-i64:64-i128:128-f80:128-n8:16:32:64-S128"
target triple = "x86_64-pc-linux-gnu"

%struct.lean_object = type { i32, i32 }

; Function Attrs: inlinehint nounwind uwtable
define internal i64 @lean_unbox(ptr noundef %0) #0 {
  %2 = alloca ptr, align 8
  store ptr %0, ptr %2, align 8, !tbaa !4
  %3 = load ptr, ptr %2, align 8, !tbaa !4
  %4 = ptrtoint ptr %3 to i64
  %5 = lshr i64 %4, 1
  ret i64 %5
}

; Function Attrs: inlinehint nounwind uwtable
define internal i32 @lean_scalar_to_int(ptr noundef %0) #0 {
  %2 = alloca ptr, align 8
  store ptr %0, ptr %2, align 8, !tbaa !4
  %3 = load ptr, ptr %2, align 8, !tbaa !4
  %4 = call i64 @lean_unbox(ptr noundef %3)
  %5 = trunc i64 %4 to i32
  ret i32 %5
}

; Function Attrs: inlinehint nounwind uwtable
define internal zeroext i1 @lean_int_lt(ptr noundef %0, ptr noundef %1) #0 {
  %3 = alloca i1, align 1
  %4 = alloca ptr, align 8
  %5 = alloca ptr, align 8
  store ptr %0, ptr %4, align 8, !tbaa !4
  store ptr %1, ptr %5, align 8, !tbaa !4
  %6 = load ptr, ptr %4, align 8, !tbaa !4
  %7 = call zeroext i1 @lean_is_scalar(ptr noundef %6)
  br i1 %7, label %8, label %11

8:                                                ; preds = %2
  %9 = load ptr, ptr %5, align 8, !tbaa !4
  %10 = call zeroext i1 @lean_is_scalar(ptr noundef %9)
  br label %11

11:                                               ; preds = %8, %2
  %12 = phi i1 [ false, %2 ], [ %10, %8 ]
  %13 = zext i1 %12 to i32
  %14 = sext i32 %13 to i64
  %15 = call i64 @llvm.expect.i64(i64 %14, i64 1)
  %16 = icmp ne i64 %15, 0
  br i1 %16, label %17, label %23

17:                                               ; preds = %11
  %18 = load ptr, ptr %4, align 8, !tbaa !4
  %19 = call i32 @lean_scalar_to_int(ptr noundef %18)
  %20 = load ptr, ptr %5, align 8, !tbaa !4
  %21 = call i32 @lean_scalar_to_int(ptr noundef %20)
  %22 = icmp slt i32 %19, %21
  store i1 %22, ptr %3, align 1
  br label %27

23:                                               ; preds = %11
  %24 = load ptr, ptr %4, align 8, !tbaa !4
  %25 = load ptr, ptr %5, align 8, !tbaa !4
  %26 = call zeroext i1 @lean_int_big_lt(ptr noundef %24, ptr noundef %25)
  store i1 %26, ptr %3, align 1
  br label %27

27:                                               ; preds = %23, %17
  %28 = load i1, ptr %3, align 1
  ret i1 %28
}

; Function Attrs: alwaysinline nounwind uwtable
define internal void @lean_dec_ref(ptr noundef %0) #3 {
  %2 = alloca ptr, align 8
  store ptr %0, ptr %2, align 8, !tbaa !4
  %3 = load ptr, ptr %2, align 8, !tbaa !4
  %4 = getelementptr inbounds nuw %struct.lean_object, ptr %3, i32 0, i32 0
  %5 = load i32, ptr %4, align 4, !tbaa !17
  %6 = icmp sgt i32 %5, 1
  %7 = zext i1 %6 to i32
  %8 = sext i32 %7 to i64
  %9 = call i64 @llvm.expect.i64(i64 %8, i64 1)
  %10 = icmp ne i64 %9, 0
  br i1 %10, label %11, label %16

11:                                               ; preds = %1
  %12 = load ptr, ptr %2, align 8, !tbaa !4
  %13 = getelementptr inbounds nuw %struct.lean_object, ptr %12, i32 0, i32 0
  %14 = load i32, ptr %13, align 4, !tbaa !17
  %15 = add i32 %14, -1
  store i32 %15, ptr %13, align 4, !tbaa !17
  br label %24

16:                                               ; preds = %1
  %17 = load ptr, ptr %2, align 8, !tbaa !4
  %18 = getelementptr inbounds nuw %struct.lean_object, ptr %17, i32 0, i32 0
  %19 = load i32, ptr %18, align 4, !tbaa !17
  %20 = icmp ne i32 %19, 0
  br i1 %20, label %21, label %23

21:                                               ; preds = %16
  %22 = load ptr, ptr %2, align 8, !tbaa !4
  call void @lean_dec_ref_cold(ptr noundef %22)
  br label %23

23:                                               ; preds = %21, %16
  br label %24

24:                                               ; preds = %23, %11
  ret void
}

; Function Attrs: alwaysinline nounwind uwtable
define internal zeroext i1 @lean_is_scalar(ptr noundef %0) #3 {
  %2 = alloca ptr, align 8
  store ptr %0, ptr %2, align 8, !tbaa !4
  %3 = load ptr, ptr %2, align 8, !tbaa !4
  %4 = ptrtoint ptr %3 to i64
  %5 = and i64 %4, 1
  %6 = icmp eq i64 %5, 1
  ret i1 %6
}

; Function Attrs: inlinehint nounwind uwtable
define internal zeroext i8 @lean_int_dec_lt(ptr noundef %0, ptr noundef %1) #0 {
  %3 = alloca ptr, align 8
  %4 = alloca ptr, align 8
  store ptr %0, ptr %3, align 8, !tbaa !4
  store ptr %1, ptr %4, align 8, !tbaa !4
  %5 = load ptr, ptr %3, align 8, !tbaa !4
  %6 = load ptr, ptr %4, align 8, !tbaa !4
  %7 = call zeroext i1 @lean_int_lt(ptr noundef %5, ptr noundef %6)
  %8 = zext i1 %7 to i8
  ret i8 %8
}

; Function Attrs: inlinehint nounwind uwtable
define internal ptr @lean_box(i64 noundef %0) #0 {
  %2 = alloca i64, align 8
  store i64 %0, ptr %2, align 8, !tbaa !8
  %3 = load i64, ptr %2, align 8, !tbaa !8
  %4 = shl i64 %3, 1
  %5 = or i64 %4, 1
  %6 = inttoptr i64 %5 to ptr
  ret ptr %6
}

; Function Attrs: alwaysinline nounwind uwtable
define internal void @lean_dec(ptr noundef %0) #3 {
  %2 = alloca ptr, align 8
  store ptr %0, ptr %2, align 8, !tbaa !4
  %3 = load ptr, ptr %2, align 8, !tbaa !4
  %4 = call zeroext i1 @lean_is_scalar(ptr noundef %3)
  br i1 %4, label %7, label %5

5:                                                ; preds = %1
  %6 = load ptr, ptr %2, align 8, !tbaa !4
  call void @lean_dec_ref(ptr noundef %6)
  br label %7

7:                                                ; preds = %5, %1
  ret void
}

; Function Attrs: nounwind uwtable
define zeroext i8 @l_Std_Time_Nanosecond_instDecidableLtSpan(ptr noundef %0, ptr noundef %1) #1 {
  %3 = alloca ptr, align 8
  %4 = alloca ptr, align 8
  %5 = alloca i8, align 1
  store ptr %0, ptr %3, align 8, !tbaa !4
  store ptr %1, ptr %4, align 8, !tbaa !4
  br label %6

6:                                                ; preds = %2
  call void @llvm.lifetime.start.p0(i64 1, ptr %5) #7
  %7 = load ptr, ptr %3, align 8, !tbaa !4
  %8 = load ptr, ptr %4, align 8, !tbaa !4
  %9 = call zeroext i8 @lean_int_dec_lt(ptr noundef %7, ptr noundef %8)
  store i8 %9, ptr %5, align 1, !tbaa !10
  %10 = load i8, ptr %5, align 1, !tbaa !10
  call void @llvm.lifetime.end.p0(i64 1, ptr %5) #7
  ret i8 %10
}

; Function Attrs: nounwind uwtable
define ptr @l_Std_Time_Nanosecond_instDecidableLtSpan___boxed(ptr noundef %0, ptr noundef %1) #1 {
  %3 = alloca ptr, align 8
  %4 = alloca ptr, align 8
  %5 = alloca i8, align 1
  %6 = alloca ptr, align 8
  store ptr %0, ptr %3, align 8, !tbaa !4
  store ptr %1, ptr %4, align 8, !tbaa !4
  br label %7

7:                                                ; preds = %2
  call void @llvm.lifetime.start.p0(i64 1, ptr %5) #7
  call void @llvm.lifetime.start.p0(i64 8, ptr %6) #7
  %8 = load ptr, ptr %3, align 8, !tbaa !4
  %9 = load ptr, ptr %4, align 8, !tbaa !4
  %10 = call zeroext i8 @l_Std_Time_Nanosecond_instDecidableLtSpan(ptr noundef %8, ptr noundef %9)
  store i8 %10, ptr %5, align 1, !tbaa !10
  %11 = load ptr, ptr %4, align 8, !tbaa !4
  call void @lean_dec(ptr noundef %11)
  %12 = load ptr, ptr %3, align 8, !tbaa !4
  call void @lean_dec(ptr noundef %12)
  %13 = load i8, ptr %5, align 1, !tbaa !10
  %14 = zext i8 %13 to i64
  %15 = call ptr @lean_box(i64 noundef %14)
  store ptr %15, ptr %6, align 8, !tbaa !4
  %16 = load ptr, ptr %6, align 8, !tbaa !4
  call void @llvm.lifetime.end.p0(i64 8, ptr %6) #7
  call void @llvm.lifetime.end.p0(i64 1, ptr %5) #7
  ret ptr %16
}